target datalayout = "e-m:e-p270:32:32-p271:32:32-p272:64:64-i64:64-i128:128-f80:128-n8:16:32:64-S128"
target triple = "x86_64-pc-linux-gnu"

%struct._zend_executor_globals = type { %struct._zval_struct, %struct._zval_struct, [32 x ptr], ptr, ptr, %struct._zend_array, %struct._zend_array, ptr, i32, i32, ptr, ptr, ptr, ptr, ptr, ptr, i64, ptr, ptr, i32, i32, i64, i32, i32, i32, i8, i8, %struct.zend_atomic_bool_s, %struct.zend_atomic_bool_s, ptr, i64, ptr, ptr, %struct._zend_array, %struct._zend_array, i32, i8, %struct._zval_struct, %struct._zval_struct, %struct._zend_stack, %struct._zend_stack, %struct._zend_stack, ptr, i32, i32, i64, ptr, ptr, ptr, %struct._zend_objects_store, ptr, ptr, ptr, [3 x %struct._zend_op], ptr, i8, i8, i64, i32, i32, ptr, [16 x %struct._HashTableIterator], ptr, %union._zend_function, %struct._zend_op, %struct._zend_array, i64, %struct.zend_get_gc_buffer, ptr, ptr, ptr, i64, i8, i32, ptr, ptr, i64, %struct._zend_call_stack, i64, i64, [6 x ptr] }
%struct.zend_atomic_bool_s = type { i8 }
%struct._zval_struct = type { %union._zend_value, %union.anon, %union.anon.2 }
%union._zend_value = type { i64 }
%union.anon = type { i32 }
%union.anon.2 = type { i32 }
%struct._zend_stack = type { i32, i32, i32, ptr }
%struct._zend_objects_store = type { ptr, i32, i32, i32 }
%struct._HashTableIterator = type { ptr, i32, i32 }
%union._zend_function = type { %struct._zend_op_array }
%struct._zend_op_array = type { i8, [3 x i8], i32, ptr, ptr, ptr, i32, i32, ptr, ptr, ptr, ptr, i32, i32, i32, i32, ptr, ptr, ptr, ptr, ptr, i32, i32, ptr, ptr, ptr, i32, i32, i32, i32, ptr, ptr, [6 x ptr] }
%struct._zend_op = type { ptr, %union._znode_op, %union._znode_op, %union._znode_op, i32, i32, i8, i8, i8, i8 }
%union._znode_op = type { i32 }
%struct._zend_array = type { %struct._zend_refcounted_h, %union.anon.5, i32, %union.anon.7, i32, i32, i32, i32, i64, ptr }
%struct._zend_refcounted_h = type { i32, %union.anon.3 }
%union.anon.3 = type { i32 }
%union.anon.5 = type { i32 }
%union.anon.7 = type { ptr }
%struct.zend_get_gc_buffer = type { ptr, ptr, ptr }
%struct._zend_call_stack = type { ptr, i64 }
%struct._zend_execute_data = type { ptr, ptr, ptr, ptr, %struct._zval_struct, ptr, ptr, ptr, ptr }
%struct._zend_object = type { %struct._zend_refcounted_h, i32, ptr, ptr, ptr, [1 x %struct._zval_struct] }
%struct._php_random_algo_with_state = type { ptr, ptr }
%struct._php_random_randomizer = type { %struct._php_random_algo_with_state, i8, %struct._zend_object }
%struct._zend_object_handlers = type { i32, ptr, ptr, ptr, ptr, ptr, ptr, ptr, ptr, ptr, ptr, ptr, ptr, ptr, ptr, ptr, ptr, ptr, ptr, ptr, ptr, ptr, ptr, ptr, ptr }

@random_ce_Random_Engine = external global ptr, align 8
@.str = private unnamed_addr constant [7 x i8] c"engine\00", align 1
@executor_globals = external global %struct._zend_executor_globals, align 8
@.str.9 = private unnamed_addr constant [56 x i8] c"Invalid serialization data for Random\\Randomizer object\00", align 1

; Function Attrs: nounwind uwtable
define internal ptr @php_random_randomizer_from_obj(ptr noundef %0) #0 {
  %2 = alloca ptr, align 8
  store ptr %0, ptr %2, align 8
  %3 = load ptr, ptr %2, align 8
  %4 = getelementptr inbounds i8, ptr %3, i64 -24
  ret ptr %4
}

; Function Attrs: nounwind uwtable
define hidden void @zim_Random_Randomizer___unserialize(ptr noundef %0, ptr noundef %1) #0 {
  %3 = alloca ptr, align 8
  %4 = alloca ptr, align 8
  %5 = alloca ptr, align 8
  %6 = alloca ptr, align 8
  %7 = alloca ptr, align 8
  %8 = alloca ptr, align 8
  %9 = alloca ptr, align 8
  %10 = alloca ptr, align 8
  %11 = alloca i32, align 4
  %12 = alloca i1, align 1
  %13 = alloca ptr, align 8
  %14 = alloca ptr, align 8
  %15 = alloca i8, align 1
  %16 = alloca i8, align 1
  %17 = alloca i8, align 1
  %18 = alloca ptr, align 8
  %19 = alloca ptr, align 8
  %20 = alloca ptr, align 8
  %21 = alloca ptr, align 8
  %22 = alloca ptr, align 8
  %23 = alloca ptr, align 8
  %24 = alloca ptr, align 8
  %25 = alloca ptr, align 8
  %26 = alloca ptr, align 8
  %27 = alloca i32, align 4
  %28 = alloca i32, align 4
  %29 = alloca i32, align 4
  %30 = alloca i32, align 4
  %31 = alloca i32, align 4
  %32 = alloca ptr, align 8
  %33 = alloca ptr, align 8
  %34 = alloca i32, align 4
  %35 = alloca ptr, align 8
  %36 = alloca i8, align 1
  %37 = alloca i8, align 1
  %38 = alloca i32, align 4
  store ptr %0, ptr %21, align 8
  store ptr %1, ptr %22, align 8
  %39 = load ptr, ptr %21, align 8
  %40 = getelementptr inbounds %struct._zend_execute_data, ptr %39, i32 0, i32 4
  %41 = getelementptr inbounds %struct._zval_struct, ptr %40, i32 0, i32 0
  %42 = load ptr, ptr %41, align 8
  %43 = call ptr @php_random_randomizer_from_obj(ptr noundef %42)
  store ptr %43, ptr %23, align 8
  br label %44

44:                                               ; preds = %2
  store i32 0, ptr %27, align 4
  store i32 1, ptr %28, align 4
  store i32 1, ptr %29, align 4
  %45 = load ptr, ptr %21, align 8
  %46 = getelementptr inbounds %struct._zend_execute_data, ptr %45, i32 0, i32 4
  %47 = getelementptr inbounds %struct._zval_struct, ptr %46, i32 0, i32 2
  %48 = load i32, ptr %47, align 4
  store i32 %48, ptr %30, align 4
  store i32 0, ptr %31, align 4
  store ptr null, ptr %33, align 8
  store i32 0, ptr %34, align 4
  store ptr null, ptr %35, align 8
  store i8 0, ptr %36, align 1
  store i8 0, ptr %37, align 1
  store i32 0, ptr %38, align 4
  br label %49

49:                                               ; preds = %44
  %50 = load i32, ptr %30, align 4
  %51 = load i32, ptr %28, align 4
  %52 = icmp ult i32 %50, %51
  %53 = xor i1 %52, true
  %54 = xor i1 %53, true
  %55 = zext i1 %54 to i32
  %56 = sext i32 %55 to i64
  %57 = icmp ne i64 %56, 0
  br i1 %57, label %67, label %58

58:                                               ; preds = %49
  %59 = load i32, ptr %30, align 4
  %60 = load i32, ptr %29, align 4
  %61 = icmp ugt i32 %59, %60
  %62 = xor i1 %61, true
  %63 = xor i1 %62, true
  %64 = zext i1 %63 to i32
  %65 = sext i32 %64 to i64
  %66 = icmp ne i64 %65, 0
  br i1 %66, label %67, label %70

67:                                               ; preds = %58, %49
  %68 = load i32, ptr %28, align 4
  %69 = load i32, ptr %29, align 4
  call void @zend_wrong_parameters_count_error(i32 noundef %68, i32 noundef %69)
  store i32 1, ptr %38, align 4
  br label %220

70:                                               ; preds = %58
  %71 = load ptr, ptr %21, align 8
  %72 = getelementptr inbounds %struct._zval_struct, ptr %71, i64 4
  store ptr %72, ptr %32, align 8
  %73 = load i32, ptr %31, align 4
  %74 = add i32 %73, 1
  store i32 %74, ptr %31, align 4
  %75 = load i32, ptr %31, align 4
  %76 = load i32, ptr %28, align 4
  %77 = icmp ule i32 %75, %76
  br i1 %77, label %83, label %78

78:                                               ; preds = %70
  %79 = load i8, ptr %37, align 1
  %80 = trunc i8 %79 to i1
  %81 = zext i1 %80 to i32
  %82 = icmp eq i32 %81, 1
  br label %83

83:                                               ; preds = %78, %70
  %84 = phi i1 [ true, %70 ], [ %82, %78 ]
  call void @llvm.assume(i1 %84)
  %85 = load i32, ptr %31, align 4
  %86 = load i32, ptr %28, align 4
  %87 = icmp ugt i32 %85, %86
  br i1 %87, label %93, label %88

88:                                               ; preds = %83
  %89 = load i8, ptr %37, align 1
  %90 = trunc i8 %89 to i1
  %91 = zext i1 %90 to i32
  %92 = icmp eq i32 %91, 0
  br label %93

93:                                               ; preds = %88, %83
  %94 = phi i1 [ true, %83 ], [ %92, %88 ]
  call void @llvm.assume(i1 %94)
  %95 = load i8, ptr %37, align 1
  %96 = trunc i8 %95 to i1
  br i1 %96, label %97, label %108

97:                                               ; preds = %93
  %98 = load i32, ptr %31, align 4
  %99 = load i32, ptr %30, align 4
  %100 = icmp ugt i32 %98, %99
  %101 = xor i1 %100, true
  %102 = xor i1 %101, true
  %103 = zext i1 %102 to i32
  %104 = sext i32 %103 to i64
  %105 = icmp ne i64 %104, 0
  br i1 %105, label %106, label %107

106:                                              ; preds = %97
  br label %220

107:                                              ; preds = %97
  br label %108

108:                                              ; preds = %107, %93
  %109 = load ptr, ptr %32, align 8
  %110 = getelementptr inbounds %struct._zval_struct, ptr %109, i32 1
  store ptr %110, ptr %32, align 8
  %111 = load ptr, ptr %32, align 8
  store ptr %111, ptr %33, align 8
  %112 = load ptr, ptr %33, align 8
  store ptr %112, ptr %13, align 8
  store ptr %24, ptr %14, align 8
  store i8 0, ptr %15, align 1
  store i8 0, ptr %16, align 1
  store i8 0, ptr %17, align 1
  %113 = load ptr, ptr %13, align 8
  store ptr %113, ptr %8, align 8
  %114 = load ptr, ptr %8, align 8
  %115 = getelementptr inbounds %struct._zval_struct, ptr %114, i32 0, i32 1
  %116 = load i8, ptr %115, align 8
  %117 = zext i8 %116 to i32
  %118 = icmp eq i32 %117, 7
  br i1 %118, label %119, label %123

119:                                              ; preds = %108
  %120 = load ptr, ptr %13, align 8
  %121 = load ptr, ptr %120, align 8
  %122 = load ptr, ptr %14, align 8
  store ptr %121, ptr %122, align 8
  br label %201

123:                                              ; preds = %108
  %124 = load i8, ptr %16, align 1
  %125 = trunc i8 %124 to i1
  br i1 %125, label %126, label %187

126:                                              ; preds = %123
  %127 = load ptr, ptr %13, align 8
  store ptr %127, ptr %9, align 8
  %128 = load ptr, ptr %9, align 8
  %129 = getelementptr inbounds %struct._zval_struct, ptr %128, i32 0, i32 1
  %130 = load i8, ptr %129, align 8
  %131 = zext i8 %130 to i32
  %132 = icmp eq i32 %131, 8
  br i1 %132, label %133, label %187

133:                                              ; preds = %126
  %134 = load ptr, ptr %13, align 8
  %135 = load ptr, ptr %134, align 8
  store ptr %135, ptr %18, align 8
  %136 = load i8, ptr %17, align 1
  %137 = trunc i8 %136 to i1
  br i1 %137, label %138, label %178

138:                                              ; preds = %133
  %139 = load ptr, ptr %18, align 8
  %140 = getelementptr inbounds %struct._zend_object, ptr %139, i32 0, i32 4
  %141 = load ptr, ptr %140, align 8
  %142 = icmp ne ptr %141, null
  br i1 %142, label %143, label %178

143:                                              ; preds = %138
  %144 = load ptr, ptr %18, align 8
  %145 = getelementptr inbounds %struct._zend_object, ptr %144, i32 0, i32 4
  %146 = load ptr, ptr %145, align 8
  store ptr %146, ptr %3, align 8
  %147 = load ptr, ptr %3, align 8
  %148 = load i32, ptr %147, align 4
  %149 = icmp ugt i32 %148, 1
  br i1 %149, label %150, label %178

150:                                              ; preds = %143
  %151 = load ptr, ptr %18, align 8
  %152 = getelementptr inbounds %struct._zend_object, ptr %151, i32 0, i32 4
  %153 = load ptr, ptr %152, align 8
  %154 = getelementptr inbounds %struct._zend_refcounted_h, ptr %153, i32 0, i32 1
  %155 = load i32, ptr %154, align 4
  store i32 %155, ptr %11, align 4
  %156 = load i32, ptr %11, align 4
  %157 = and i32 %156, 1008
  %158 = and i32 %157, 64
  %159 = icmp ne i32 %158, 0
  %160 = xor i1 %159, true
  br i1 %160, label %161, label %171

161:                                              ; preds = %150
  %162 = load ptr, ptr %18, align 8
  %163 = getelementptr inbounds %struct._zend_object, ptr %162, i32 0, i32 4
  %164 = load ptr, ptr %163, align 8
  store ptr %164, ptr %4, align 8
  %165 = load ptr, ptr %4, align 8
  %166 = load i32, ptr %165, align 4
  %167 = icmp ugt i32 %166, 0
  call void @llvm.assume(i1 %167)
  %168 = load ptr, ptr %4, align 8
  %169 = load i32, ptr %168, align 4
  %170 = add i32 %169, -1
  store i32 %170, ptr %168, align 4
  br label %171

171:                                              ; preds = %161, %150
  %172 = load ptr, ptr %18, align 8
  %173 = getelementptr inbounds %struct._zend_object, ptr %172, i32 0, i32 4
  %174 = load ptr, ptr %173, align 8
  %175 = call ptr @zend_array_dup(ptr noundef %174) #8
  %176 = load ptr, ptr %18, align 8
  %177 = getelementptr inbounds %struct._zend_object, ptr %176, i32 0, i32 4
  store ptr %175, ptr %177, align 8
  br label %178

178:                                              ; preds = %171, %143, %138, %133
  %179 = load ptr, ptr %18, align 8
  %180 = getelementptr inbounds %struct._zend_object, ptr %179, i32 0, i32 3
  %181 = load ptr, ptr %180, align 8
  %182 = getelementptr inbounds %struct._zend_object_handlers, ptr %181, i32 0, i32 13
  %183 = load ptr, ptr %182, align 8
  %184 = load ptr, ptr %18, align 8
  %185 = call ptr %183(ptr noundef %184) #8
  %186 = load ptr, ptr %14, align 8
  store ptr %185, ptr %186, align 8
  br label %200

187:                                              ; preds = %126, %123
  %188 = load i8, ptr %15, align 1
  %189 = trunc i8 %188 to i1
  br i1 %189, label %190, label %199

190:                                              ; preds = %187
  %191 = load ptr, ptr %13, align 8
  store ptr %191, ptr %10, align 8
  %192 = load ptr, ptr %10, align 8
  %193 = getelementptr inbounds %struct._zval_struct, ptr %192, i32 0, i32 1
  %194 = load i8, ptr %193, align 8
  %195 = zext i8 %194 to i32
  %196 = icmp eq i32 %195, 1
  br i1 %196, label %197, label %199

197:                                              ; preds = %190
  %198 = load ptr, ptr %14, align 8
  store ptr null, ptr %198, align 8
  br label %200

199:                                              ; preds = %190, %187
  store i1 false, ptr %12, align 1
  br label %202

200:                                              ; preds = %197, %178
  br label %201

201:                                              ; preds = %200, %119
  store i1 true, ptr %12, align 1
  br label %202

202:                                              ; preds = %201, %199
  %203 = load i1, ptr %12, align 1
  %204 = xor i1 %203, true
  %205 = xor i1 %204, true
  %206 = xor i1 %205, true
  %207 = zext i1 %206 to i32
  %208 = sext i32 %207 to i64
  %209 = icmp ne i64 %208, 0
  br i1 %209, label %210, label %211

210:                                              ; preds = %202
  store i32 6, ptr %34, align 4
  store i32 9, ptr %38, align 4
  br label %220

211:                                              ; preds = %202
  %212 = load i32, ptr %31, align 4
  %213 = load i32, ptr %29, align 4
  %214 = icmp eq i32 %212, %213
  br i1 %214, label %218, label %215

215:                                              ; preds = %211
  %216 = load i32, ptr %29, align 4
  %217 = icmp eq i32 %216, -1
  br label %218

218:                                              ; preds = %215, %211
  %219 = phi i1 [ true, %211 ], [ %217, %215 ]
  call void @llvm.assume(i1 %219)
  br label %220

220:                                              ; preds = %218, %210, %106, %67
  %221 = load i32, ptr %38, align 4
  %222 = icmp ne i32 %221, 0
  %223 = xor i1 %222, true
  %224 = xor i1 %223, true
  %225 = zext i1 %224 to i32
  %226 = sext i32 %225 to i64
  %227 = icmp ne i64 %226, 0
  br i1 %227, label %228, label %234

228:                                              ; preds = %220
  %229 = load i32, ptr %38, align 4
  %230 = load i32, ptr %31, align 4
  %231 = load ptr, ptr %35, align 8
  %232 = load i32, ptr %34, align 4
  %233 = load ptr, ptr %33, align 8
  call void @zend_wrong_parameter_error(i32 noundef %229, i32 noundef %230, ptr noundef %231, i32 noundef %232, ptr noundef %233)
  br label %320

234:                                              ; preds = %220
  br label %235

235:                                              ; preds = %234
  %236 = load ptr, ptr %24, align 8
  store ptr %236, ptr %7, align 8
  %237 = load ptr, ptr %7, align 8
  %238 = getelementptr inbounds %struct._zend_array, ptr %237, i32 0, i32 5
  %239 = load i32, ptr %238, align 4
  %240 = icmp ne i32 %239, 1
  br i1 %240, label %241, label %247

241:                                              ; preds = %235
  %242 = call ptr @zend_throw_exception(ptr noundef null, ptr noundef @.str.9, i64 noundef 0)
  br label %243

243:                                              ; preds = %241
  %244 = load ptr, ptr getelementptr inbounds (%struct._zend_executor_globals, ptr @executor_globals, i32 0, i32 50), align 8
  %245 = icmp ne ptr %244, null
  call void @llvm.assume(i1 %245)
  br label %320

246:                                              ; No predecessors!
  br label %247

247:                                              ; preds = %246, %235
  %248 = load ptr, ptr %24, align 8
  %249 = call ptr @zend_hash_index_find(ptr noundef %248, i64 noundef 0)
  store ptr %249, ptr %25, align 8
  %250 = load ptr, ptr %25, align 8
  %251 = icmp ne ptr %250, null
  br i1 %251, label %252, label %259

252:                                              ; preds = %247
  %253 = load ptr, ptr %25, align 8
  store ptr %253, ptr %19, align 8
  %254 = load ptr, ptr %19, align 8
  %255 = getelementptr inbounds %struct._zval_struct, ptr %254, i32 0, i32 1
  %256 = load i8, ptr %255, align 8
  %257 = zext i8 %256 to i32
  %258 = icmp ne i32 %257, 7
  br i1 %258, label %259, label %265

259:                                              ; preds = %252, %247
  %260 = call ptr @zend_throw_exception(ptr noundef null, ptr noundef @.str.9, i64 noundef 0)
  br label %261

261:                                              ; preds = %259
  %262 = load ptr, ptr getelementptr inbounds (%struct._zend_executor_globals, ptr @executor_globals, i32 0, i32 50), align 8
  %263 = icmp ne ptr %262, null
  call void @llvm.assume(i1 %263)
  br label %320

264:                                              ; No predecessors!
  br label %265

265:                                              ; preds = %264, %252
  %266 = load ptr, ptr %23, align 8
  %267 = getelementptr inbounds %struct._php_random_randomizer, ptr %266, i32 0, i32 2
  %268 = load ptr, ptr %25, align 8
  %269 = getelementptr inbounds %struct._zval_struct, ptr %268, i32 0, i32 0
  %270 = load ptr, ptr %269, align 8
  call void @object_properties_load(ptr noundef %267, ptr noundef %270)
  %271 = load ptr, ptr getelementptr inbounds (%struct._zend_executor_globals, ptr @executor_globals, i32 0, i32 50), align 8
  %272 = icmp ne ptr %271, null
  br i1 %272, label %273, label %279

273:                                              ; preds = %265
  %274 = call ptr @zend_throw_exception(ptr noundef null, ptr noundef @.str.9, i64 noundef 0)
  br label %275

275:                                              ; preds = %273
  %276 = load ptr, ptr getelementptr inbounds (%struct._zend_executor_globals, ptr @executor_globals, i32 0, i32 50), align 8
  %277 = icmp ne ptr %276, null
  call void @llvm.assume(i1 %277)
  br label %320

278:                                              ; No predecessors!
  br label %279

279:                                              ; preds = %278, %265
  %280 = load ptr, ptr %23, align 8
  %281 = getelementptr inbounds %struct._php_random_randomizer, ptr %280, i32 0, i32 2
  %282 = getelementptr inbounds %struct._zend_object, ptr %281, i32 0, i32 2
  %283 = load ptr, ptr %282, align 8
  %284 = load ptr, ptr %23, align 8
  %285 = getelementptr inbounds %struct._php_random_randomizer, ptr %284, i32 0, i32 2
  %286 = call ptr @zend_read_property(ptr noundef %283, ptr noundef %285, ptr noundef @.str, i64 noundef 6, i1 noundef zeroext true, ptr noundef null)
  store ptr %286, ptr %26, align 8
  %287 = load ptr, ptr %26, align 8
  store ptr %287, ptr %20, align 8
  %288 = load ptr, ptr %20, align 8
  %289 = getelementptr inbounds %struct._zval_struct, ptr %288, i32 0, i32 1
  %290 = load i8, ptr %289, align 8
  %291 = zext i8 %290 to i32
  %292 = icmp ne i32 %291, 8
  br i1 %292, label %309, label %293

293:                                              ; preds = %279
  %294 = load ptr, ptr %26, align 8
  %295 = getelementptr inbounds %struct._zval_struct, ptr %294, i32 0, i32 0
  %296 = load ptr, ptr %295, align 8
  %297 = getelementptr inbounds %struct._zend_object, ptr %296, i32 0, i32 2
  %298 = load ptr, ptr %297, align 8
  %299 = load ptr, ptr @random_ce_Random_Engine, align 8
  store ptr %298, ptr %5, align 8
  store ptr %299, ptr %6, align 8
  %300 = load ptr, ptr %5, align 8
  %301 = load ptr, ptr %6, align 8
  %302 = icmp eq ptr %300, %301
  br i1 %302, label %307, label %303

303:                                              ; preds = %293
  %304 = load ptr, ptr %5, align 8
  %305 = load ptr, ptr %6, align 8
  %306 = call zeroext i1 @instanceof_function_slow(ptr noundef %304, ptr noundef %305) #8
  br label %307

307:                                              ; preds = %303, %293
  %308 = phi i1 [ true, %293 ], [ %306, %303 ]
  br i1 %308, label %315, label %309

309:                                              ; preds = %307, %279
  %310 = call ptr @zend_throw_exception(ptr noundef null, ptr noundef @.str.9, i64 noundef 0)
  br label %311

311:                                              ; preds = %309
  %312 = load ptr, ptr getelementptr inbounds (%struct._zend_executor_globals, ptr @executor_globals, i32 0, i32 50), align 8
  %313 = icmp ne ptr %312, null
  call void @llvm.assume(i1 %313)
  br label %320

314:                                              ; No predecessors!
  br label %315

315:                                              ; preds = %314, %307
  %316 = load ptr, ptr %23, align 8
  %317 = load ptr, ptr %26, align 8
  %318 = getelementptr inbounds %struct._zval_struct, ptr %317, i32 0, i32 0
  %319 = load ptr, ptr %318, align 8
  call void @randomizer_common_init(ptr noundef %316, ptr noundef %319)
  br label %320

320:                                              ; preds = %315, %311, %275, %261, %243, %228
  ret void
}