; Function Attrs: nounwind uwtable
define hidden void @zim_Random_Randomizer___unserialize(ptr noundef %0, ptr nocapture noundef readnone %1) local_unnamed_addr #0 {
  %3 = getelementptr inbounds i8, ptr %0, i64 32
  %4 = load ptr, ptr %3, align 8
  %5 = getelementptr inbounds i8, ptr %4, i64 -24
  %6 = getelementptr inbounds i8, ptr %0, i64 44
  %7 = load i32, ptr %6, align 4
  %cond = icmp eq i32 %7, 1
  br i1 %cond, label %8, label %.thread

.thread:                                          ; preds = %2
  tail call void @zend_wrong_parameters_count_error(i32 noundef 1, i32 noundef 1) #7
  br label %12

8:                                                ; preds = %2
  %9 = getelementptr inbounds i8, ptr %0, i64 80
  %10 = getelementptr inbounds i8, ptr %0, i64 88
  %11 = load i8, ptr %10, align 8
  %.not87 = icmp eq i8 %11, 7
  br i1 %.not87, label %13, label %12

12:                                               ; preds = %8, %.thread
  %.0105 = phi i32 [ 1, %.thread ], [ 9, %8 ]
  %.075104 = phi i32 [ 0, %.thread ], [ 1, %8 ]
  %.076103 = phi i32 [ 0, %.thread ], [ 6, %8 ]
  %.077102 = phi ptr [ null, %.thread ], [ %9, %8 ]
  tail call void @zend_wrong_parameter_error(i32 noundef %.0105, i32 noundef %.075104, ptr noundef null, i32 noundef %.076103, ptr noundef %.077102) #7
  br label %56

13:                                               ; preds = %8
  %14 = load ptr, ptr %9, align 8
  %15 = getelementptr inbounds i8, ptr %14, i64 28
  %16 = load i32, ptr %15, align 4
  %.not89 = icmp eq i32 %16, 1
  br i1 %.not89, label %21, label %17

17:                                               ; preds = %13
  %18 = tail call ptr @zend_throw_exception(ptr noundef null, ptr noundef nonnull @.str.9, i64 noundef 0) #7
  %19 = load ptr, ptr getelementptr inbounds (%struct._zend_executor_globals, ptr @executor_globals, i64 0, i32 50), align 8
  %20 = icmp ne ptr %19, null
  tail call void @llvm.assume(i1 %20)
  br label %56

21:                                               ; preds = %13
  %22 = tail call ptr @zend_hash_index_find(ptr noundef nonnull %14, i64 noundef 0) #7
  %.not90 = icmp eq ptr %22, null
  br i1 %.not90, label %26, label %23

23:                                               ; preds = %21
  %24 = getelementptr inbounds i8, ptr %22, i64 8
  %25 = load i8, ptr %24, align 8
  %.not91 = icmp eq i8 %25, 7
  br i1 %.not91, label %30, label %26

26:                                               ; preds = %23, %21
  %27 = tail call ptr @zend_throw_exception(ptr noundef null, ptr noundef nonnull @.str.9, i64 noundef 0) #7
  %28 = load ptr, ptr getelementptr inbounds (%struct._zend_executor_globals, ptr @executor_globals, i64 0, i32 50), align 8
  %29 = icmp ne ptr %28, null
  tail call void @llvm.assume(i1 %29)
  br label %56

30:                                               ; preds = %23
  %31 = load ptr, ptr %22, align 8
  tail call void @object_properties_load(ptr noundef nonnull %4, ptr noundef %31) #7
  %32 = load ptr, ptr getelementptr inbounds (%struct._zend_executor_globals, ptr @executor_globals, i64 0, i32 50), align 8
  %.not92 = icmp eq ptr %32, null
  br i1 %.not92, label %37, label %33

33:                                               ; preds = %30
  %34 = tail call ptr @zend_throw_exception(ptr noundef null, ptr noundef nonnull @.str.9, i64 noundef 0) #7
  %35 = load ptr, ptr getelementptr inbounds (%struct._zend_executor_globals, ptr @executor_globals, i64 0, i32 50), align 8
  %36 = icmp ne ptr %35, null
  tail call void @llvm.assume(i1 %36)
  br label %56

37:                                               ; preds = %30
  %38 = getelementptr inbounds i8, ptr %4, i64 16
  %39 = load ptr, ptr %38, align 8
  %40 = tail call ptr @zend_read_property(ptr noundef %39, ptr noundef nonnull %4, ptr noundef nonnull @.str, i64 noundef 6, i1 noundef zeroext true, ptr noundef null) #7
  %41 = getelementptr inbounds i8, ptr %40, i64 8
  %42 = load i8, ptr %41, align 8
  %.not93 = icmp eq i8 %42, 8
  br i1 %.not93, label %43, label %51

43:                                               ; preds = %37
  %44 = load ptr, ptr %40, align 8
  %45 = getelementptr inbounds i8, ptr %44, i64 16
  %46 = load ptr, ptr %45, align 8
  %47 = load ptr, ptr @random_ce_Random_Engine, align 8
  %48 = icmp eq ptr %46, %47
  br i1 %48, label %.critedge, label %49

49:                                               ; preds = %43
  %50 = tail call zeroext i1 @instanceof_function_slow(ptr noundef %46, ptr noundef %47) #7
  br i1 %50, label %..critedge_crit_edge, label %51

..critedge_crit_edge:                             ; preds = %49
  %.pre = load ptr, ptr %40, align 8
  br label %.critedge

51:                                               ; preds = %49, %37
  %52 = tail call ptr @zend_throw_exception(ptr noundef null, ptr noundef nonnull @.str.9, i64 noundef 0) #7
  %53 = load ptr, ptr getelementptr inbounds (%struct._zend_executor_globals, ptr @executor_globals, i64 0, i32 50), align 8
  %54 = icmp ne ptr %53, null
  tail call void @llvm.assume(i1 %54)
  br label %56

.critedge:                                        ; preds = %..critedge_crit_edge, %43
  %55 = phi ptr [ %.pre, %..critedge_crit_edge ], [ %44, %43 ]
  tail call fastcc void @randomizer_common_init(ptr noundef nonnull %5, ptr noundef %55)
  br label %56

56:                                               ; preds = %.critedge, %51, %33, %26, %17, %12
  ret void
}